target datalayout = "e-m:e-p270:32:32-p271:32:32-p272:64:64-i64:64-i128:128-f80:128-n8:16:32:64-S128"
target triple = "x86_64-pc-linux-gnu"

%"class.std::__cxx11::basic_string" = type { %"struct.std::__cxx11::basic_string<char>::_Alloc_hider", i64, %union.anon }
%"struct.std::__cxx11::basic_string<char>::_Alloc_hider" = type { ptr }
%union.anon = type { i64, [8 x i8] }
%"class.std::allocator" = type { i8 }
%struct.CvMoments = type { double, double, double, double, double, double, double, double, double, double, double, double, double, double, double, double, double, double }

@.str.1 = private unnamed_addr constant [123 x i8] c"generated/home/dtcxzyw/WorkSpace/Projects/compilers/llvm-opt-benchmark/bench/opencv/opencv/modules/imgproc/src/moments.cpp\00", align 1
@.str.3 = private unnamed_addr constant [1 x i8] zeroinitializer, align 1
@__func__.cvGetCentralMoment = private unnamed_addr constant [19 x i8] c"cvGetCentralMoment\00", align 1

; Function Attrs: mustprogress uwtable
define double @cvGetCentralMoment(ptr noundef %0, i32 noundef %1, i32 noundef %2) #1 personality ptr @__gxx_personality_v0 {
  %4 = alloca ptr, align 8
  %5 = alloca i32, align 4
  %6 = alloca i32, align 4
  %7 = alloca i32, align 4
  %8 = alloca %"class.std::__cxx11::basic_string", align 8
  %9 = alloca %"class.std::allocator", align 1
  %10 = alloca ptr, align 8
  %11 = alloca i32, align 4
  %12 = alloca %"class.std::__cxx11::basic_string", align 8
  %13 = alloca %"class.std::allocator", align 1
  store ptr %0, ptr %4, align 8
  store i32 %1, ptr %5, align 4
  store i32 %2, ptr %6, align 4
  %14 = load i32, ptr %5, align 4
  %15 = load i32, ptr %6, align 4
  %16 = add nsw i32 %14, %15
  store i32 %16, ptr %7, align 4
  %17 = load ptr, ptr %4, align 8
  %18 = icmp ne ptr %17, null
  br i1 %18, label %31, label %19

19:                                               ; preds = %3
  call void @_ZNSaIcEC1Ev(ptr noundef nonnull align 1 dereferenceable(1) %9) #9
  invoke void @_ZNSt7__cxx1112basic_stringIcSt11char_traitsIcESaIcEEC1EPKcRKS3_(ptr noundef nonnull align 8 dereferenceable(32) %8, ptr noundef @.str.3, ptr noundef nonnull align 1 dereferenceable(1) %9)
          to label %20 unwind label %22

20:                                               ; preds = %19
  invoke void @_ZN2cv5errorEiRKNSt7__cxx1112basic_stringIcSt11char_traitsIcESaIcEEEPKcS9_i(i32 noundef -27, ptr noundef nonnull align 8 dereferenceable(32) %8, ptr noundef @__func__.cvGetCentralMoment, ptr noundef @.str.1, i32 noundef 781) #10
          to label %21 unwind label %26

21:                                               ; preds = %20
  unreachable

22:                                               ; preds = %19
  %23 = landingpad { ptr, i32 }
          cleanup
  %24 = extractvalue { ptr, i32 } %23, 0
  store ptr %24, ptr %10, align 8
  %25 = extractvalue { ptr, i32 } %23, 1
  store i32 %25, ptr %11, align 4
  br label %30

26:                                               ; preds = %20
  %27 = landingpad { ptr, i32 }
          cleanup
  %28 = extractvalue { ptr, i32 } %27, 0
  store ptr %28, ptr %10, align 8
  %29 = extractvalue { ptr, i32 } %27, 1
  store i32 %29, ptr %11, align 4
  call void @_ZNSt7__cxx1112basic_stringIcSt11char_traitsIcESaIcEED1Ev(ptr noundef nonnull align 8 dereferenceable(32) %8) #9
  br label %30

30:                                               ; preds = %26, %22
  call void @_ZNSaIcED1Ev(ptr noundef nonnull align 1 dereferenceable(1) %9) #9
  br label %77

31:                                               ; preds = %3
  %32 = load i32, ptr %5, align 4
  %33 = load i32, ptr %6, align 4
  %34 = or i32 %32, %33
  %35 = icmp slt i32 %34, 0
  br i1 %35, label %39, label %36

36:                                               ; preds = %31
  %37 = load i32, ptr %7, align 4
  %38 = icmp sgt i32 %37, 3
  br i1 %38, label %39, label %51

39:                                               ; preds = %36, %31
  call void @_ZNSaIcEC1Ev(ptr noundef nonnull align 1 dereferenceable(1) %13) #9
  invoke void @_ZNSt7__cxx1112basic_stringIcSt11char_traitsIcESaIcEEC1EPKcRKS3_(ptr noundef nonnull align 8 dereferenceable(32) %12, ptr noundef @.str.3, ptr noundef nonnull align 1 dereferenceable(1) %13)
          to label %40 unwind label %42

40:                                               ; preds = %39
  invoke void @_ZN2cv5errorEiRKNSt7__cxx1112basic_stringIcSt11char_traitsIcESaIcEEEPKcS9_i(i32 noundef -211, ptr noundef nonnull align 8 dereferenceable(32) %12, ptr noundef @__func__.cvGetCentralMoment, ptr noundef @.str.1, i32 noundef 783) #10
          to label %41 unwind label %46

41:                                               ; preds = %40
  unreachable

42:                                               ; preds = %39
  %43 = landingpad { ptr, i32 }
          cleanup
  %44 = extractvalue { ptr, i32 } %43, 0
  store ptr %44, ptr %10, align 8
  %45 = extractvalue { ptr, i32 } %43, 1
  store i32 %45, ptr %11, align 4
  br label %50

46:                                               ; preds = %40
  %47 = landingpad { ptr, i32 }
          cleanup
  %48 = extractvalue { ptr, i32 } %47, 0
  store ptr %48, ptr %10, align 8
  %49 = extractvalue { ptr, i32 } %47, 1
  store i32 %49, ptr %11, align 4
  call void @_ZNSt7__cxx1112basic_stringIcSt11char_traitsIcESaIcEED1Ev(ptr noundef nonnull align 8 dereferenceable(32) %12) #9
  br label %50

50:                                               ; preds = %46, %42
  call void @_ZNSaIcED1Ev(ptr noundef nonnull align 1 dereferenceable(1) %13) #9
  br label %77

51:                                               ; preds = %36
  %52 = load i32, ptr %7, align 4
  %53 = icmp sge i32 %52, 2
  br i1 %53, label %54, label %65

54:                                               ; preds = %51
  %55 = load ptr, ptr %4, align 8
  %56 = getelementptr inbounds %struct.CvMoments, ptr %55, i32 0, i32 0
  %57 = load i32, ptr %7, align 4
  %58 = mul nsw i32 %57, 3
  %59 = add nsw i32 4, %58
  %60 = load i32, ptr %6, align 4
  %61 = add nsw i32 %59, %60
  %62 = sext i32 %61 to i64
  %63 = getelementptr inbounds double, ptr %56, i64 %62
  %64 = load double, ptr %63, align 8
  br label %75

65:                                               ; preds = %51
  %66 = load i32, ptr %7, align 4
  %67 = icmp eq i32 %66, 0
  br i1 %67, label %68, label %72

68:                                               ; preds = %65
  %69 = load ptr, ptr %4, align 8
  %70 = getelementptr inbounds %struct.CvMoments, ptr %69, i32 0, i32 0
  %71 = load double, ptr %70, align 8
  br label %73

72:                                               ; preds = %65
  br label %73

73:                                               ; preds = %72, %68
  %74 = phi double [ %71, %68 ], [ 0.000000e+00, %72 ]
  br label %75

75:                                               ; preds = %73, %54
  %76 = phi double [ %64, %54 ], [ %74, %73 ]
  ret double %76

77:                                               ; preds = %50, %30
  %78 = load ptr, ptr %10, align 8
  %79 = load i32, ptr %11, align 4
  %80 = insertvalue { ptr, i32 } poison, ptr %78, 0
  %81 = insertvalue { ptr, i32 } %80, i32 %79, 1
  resume { ptr, i32 } %81
}